ccollections
OrderedDict
p0
((lp1
(lp2
S'0059'
p3
ag0
((lp4
(lp5
V2017/10/03
p6
aF37.88
aa(lp7
V2017/10/06
p8
aF37.36
aa(lp9
V2017/09/01
p10
aF38.15
aa(lp11
V2017/09/04
p12
aF37.89
aa(lp13
V2017/09/05
p14
aF38.17
aa(lp15
V2017/09/06
p16
aF38.17
aa(lp17
V2017/09/07
p18
aF38.28
aa(lp19
V2017/09/11
p20
aF37.67
aa(lp21
V2017/09/12
p22
aF37.97
aa(lp23
V2017/09/13
p24
aF38.05
aa(lp25
V2017/09/15
p26
aF37.87
aa(lp27
V2017/09/18
p28
aF38.29
aa(lp29
V2017/09/19
p30
aF38.29
aa(lp31
V2017/09/21
p32
aF38.31
aa(lp33
V2017/09/22
p34
aF38.15
aa(lp35
V2017/09/25
p36
aF37.8
aa(lp37
V2017/09/26
p38
aF38.12
aa(lp39
V2017/09/27
p40
aF38.26
aa(lp41
V2017/09/28
p42
aF38.26
aa(lp43
V2017/09/29
p44
aF37.68
aa(lp45
V2017/09/30
p46
aF37.88
aa(lp47
V2017/08/02
p48
aF36.4
aa(lp49
V2017/08/03
p50
aF36.4
aa(lp51
V2017/08/07
p52
aF36.5
aa(lp53
V2017/08/08
p54
aF38.22
aa(lp55
V2017/08/09
p56
aF38.13
aa(lp57
V2017/08/10
p58
aF37.19
aa(lp59
V2017/08/11
p60
aF37.28
aa(lp61
V2017/08/14
p62
aF37.08
aa(lp63
V2017/08/15
p64
aF36.85
aa(lp65
V2017/08/16
p66
aF36.34
aa(lp67
V2017/08/17
p68
aF37.08
aa(lp69
V2017/08/18
p70
aF36.7
aa(lp71
V2017/08/21
p72
aF36.84
aa(lp73
V2017/08/22
p74
aF37.23
aa(lp75
V2017/08/23
p76
aF37.6
aa(lp77
V2017/08/28
p78
aF37.4
aa(lp79
V2017/08/29
p80
aF37.41
aa(lp81
V2017/08/31
p82
aF37.03
aa(lp83
V2017/07/03
p84
aF35.73
aa(lp85
V2017/07/04
p86
aF36.21
aa(lp87
V2017/07/05
p88
aF35.98
aa(lp89
V2017/07/06
p90
aF35.99
aa(lp91
V2017/07/07
p92
aF36.1
aa(lp93
V2017/07/10
p94
aF35.89
aa(lp95
V2017/07/11
p96
aF36.24
aa(lp97
V2017/07/13
p98
aF36.53
aa(lp99
V2017/07/17
p100
aF36.73
aa(lp101
V2017/07/18
p102
aF36.9
aa(lp103
V2017/07/19
p104
aF36.69
aa(lp105
V2017/07/20
p106
aF36.61
aa(lp107
V2017/07/21
p108
aF36.64
aa(lp109
V2017/07/24
p110
aF36.02
aa(lp111
V2017/07/25
p112
aF36.5
aa(lp113
V2017/07/26
p114
aF36.61
aa(lp115
V2017/07/27
p116
aF36.24
aa(lp117
V2017/07/28
p118
aF36.39
aa(lp119
V2017/07/31
p120
aF36.11
aa(lp121
V2017/06/01
p122
aF35.19
aa(lp123
V2017/06/02
p124
aF34.63
aa(lp125
V2017/06/03
p126
aF35.06
aa(lp127
V2017/06/05
p128
aF35.01
aa(lp129
V2017/06/06
p130
aF35.14
aa(lp131
V2017/06/07
p132
aF35.24
aa(lp133
V2017/06/09
p134
aF35.4
aa(lp135
V2017/06/12
p136
aF34.75
aa(lp137
V2017/06/13
p138
aF35.08
aa(lp139
V2017/06/14
p140
aF34.82
aa(lp141
V2017/06/16
p142
aF35.06
aa(lp143
V2017/06/19
p144
aF35.08
aa(lp145
V2017/06/20
p146
aF35.29
aa(lp147
V2017/06/21
p148
aF35.0
aa(lp149
V2017/06/22
p150
aF35.0
aa(lp151
V2017/06/23
p152
aF35.2
aa(lp153
V2017/06/26
p154
aF35.99
aa(lp155
V2017/06/27
p156
aF35.89
aa(lp157
V2017/06/28
p158
aF35.8
aa(lp159
V2017/06/29
p160
aF36.09
aa(lp161
V2017/06/30
p162
aF35.82
aa(lp163
V2017/05/02
p164
aF35.1
aa(lp165
V2017/05/03
p166
aF35.2
aa(lp167
V2017/05/04
p168
aF35.02
aa(lp169
V2017/05/05
p170
aF35.18
aa(lp171
V2017/05/08
p172
aF35.33
aa(lp173
V2017/05/09
p174
aF35.07
aa(lp175
V2017/05/10
p176
aF34.91
aa(lp177
V2017/05/11
p178
aF34.96
aa(lp179
V2017/05/15
p180
aF35.51
aa(lp181
V2017/05/16
p182
aF35.86
aa(lp183
V2017/05/17
p184
aF36.03
aa(lp185
V2017/05/18
p186
aF35.71
aa(lp187
V2017/05/19
p188
aF35.2
aa(lp189
V2017/05/22
p190
aF35.24
aa(lp191
V2017/05/23
p192
aF35.15
aa(lp193
V2017/05/26
p194
aF35.4
aa(lp195
V2017/05/31
p196
aF35.44
aa(lp197
V2017/04/05
p198
aF35.3
aa(lp199
V2017/04/06
p200
aF35.62
aa(lp201
V2017/04/07
p202
aF35.72
aa(lp203
V2017/04/10
p204
aF35.22
aa(lp205
V2017/04/11
p206
aF34.85
aa(lp207
V2017/04/13
p208
aF35.07
aa(lp209
V2017/04/17
p210
aF34.6
aa(lp211
V2017/04/18
p212
aF34.97
aa(lp213
V2017/04/19
p214
aF34.76
aa(lp215
V2017/04/21
p216
aF34.86
aa(lp217
V2017/04/24
p218
aF34.86
aa(lp219
V2017/04/25
p220
aF35.12
aa(lp221
V2017/04/26
p222
aF35.11
aa(lp223
V2017/04/27
p224
aF35.3
aa(lp225
V2017/04/28
p226
aF35.23
aa(lp227
V2017/03/01
p228
aF34.55
aa(lp229
V2017/03/02
p230
aF34.56
aa(lp231
V2017/03/03
p232
aF34.5
aa(lp233
V2017/03/06
p234
aF34.66
aa(lp235
V2017/03/07
p236
aF34.9
aa(lp237
V2017/03/08
p238
aF34.87
aa(lp239
V2017/03/09
p240
aF34.87
aa(lp241
V2017/03/10
p242
aF34.93
aa(lp243
V2017/03/13
p244
aF35.19
aa(lp245
V2017/03/14
p246
aF35.18
aa(lp247
V2017/03/15
p248
aF35.44
aa(lp249
V2017/03/16
p250
aF35.25
aa(lp251
V2017/03/17
p252
aF35.58
aa(lp253
V2017/03/20
p254
aF36.2
aa(lp255
V2017/03/21
p256
aF36.17
aa(lp257
V2017/03/22
p258
aF36.12
aa(lp259
V2017/03/23
p260
aF35.86
aa(lp261
V2017/03/24
p262
aF35.94
aa(lp263
V2017/03/27
p264
aF35.61
aa(lp265
V2017/03/28
p266
aF35.8
aa(lp267
V2017/03/29
p268
aF35.59
aa(lp269
V2017/03/30
p270
aF35.4
aa(lp271
V2017/03/31
p272
aF35.4
aa(lp273
V2017/02/02
p274
aF33.99
aa(lp275
V2017/02/03
p276
aF34.5
aa(lp277
V2017/02/06
p278
aF34.4
aa(lp279
V2017/02/07
p280
aF34.4
aa(lp281
V2017/02/09
p282
aF34.37
aa(lp283
V2017/02/10
p284
aF34.41
aa(lp285
V2017/02/13
p286
aF34.53
aa(lp287
V2017/02/14
p288
aF34.8
aa(lp289
V2017/02/15
p290
aF34.8
aa(lp291
V2017/02/16
p292
aF34.98
aa(lp293
V2017/02/17
p294
aF35.02
aa(lp295
V2017/02/18
p296
aF34.86
aa(lp297
V2017/02/20
p298
aF34.86
aa(lp299
V2017/02/22
p300
aF34.9
aa(lp301
V2017/02/23
p302
aF34.7
aa(lp303
V2017/02/24
p304
aF34.78
aa(lp305
V2017/01/03
p306
aF34.44
aa(lp307
V2017/01/04
p308
aF34.64
aa(lp309
V2017/01/05
p310
aF34.8
aa(lp311
V2017/01/06
p312
aF35.04
aa(lp313
V2017/01/09
p314
aF35.37
aa(lp315
V2017/01/10
p316
aF34.89
aa(lp317
V2017/01/11
p318
aF35.08
aa(lp319
V2017/01/12
p320
aF35.12
aa(lp321
V2017/01/13
p322
aF35.25
aa(lp323
V2017/01/16
p324
aF34.58
aa(lp325
V2017/01/17
p326
aF35.07
aa(lp327
V2017/01/18
p328
aF34.14
aa(lp329
V2017/01/19
p330
aF33.69
aa(lp331
V2017/01/20
p332
aF33.65
aa(lp333
V2017/01/23
p334
aF33.4
aa(lp335
V2017/01/24
p336
aF33.85
aa(lp337
V2016/12/01
p338
aF34.41
aa(lp339
V2016/12/02
p340
aF34.83
aa(lp341
V2016/12/05
p342
aF34.94
aa(lp343
V2016/12/06
p344
aF34.98
aa(lp345
V2016/12/07
p346
aF34.81
aa(lp347
V2016/12/08
p348
aF34.63
aa(lp349
V2016/12/09
p350
aF34.73
aa(lp351
V2016/12/12
p352
aF34.2
aa(lp353
V2016/12/13
p354
aF35.04
aa(lp355
V2016/12/14
p356
aF34.75
aa(lp357
V2016/12/15
p358
aF34.89
aa(lp359
V2016/12/16
p360
aF35.09
aa(lp361
V2016/12/19
p362
aF34.75
aa(lp363
V2016/12/20
p364
aF34.85
aa(lp365
V2016/12/22
p366
aF34.27
aa(lp367
V2016/12/23
p368
aF34.15
aa(lp369
V2016/12/27
p370
aF34.4
aa(lp371
V2016/12/29
p372
aF34.44
aa(lp373
V2016/12/30
p374
aF34.44
aa(lp375
V2016/11/02
p376
aF32.06
aa(lp377
V2016/11/04
p378
aF31.58
aa(lp379
V2016/11/07
p380
aF32.07
aa(lp381
V2016/11/08
p382
aF32.28
aa(lp383
V2016/11/09
p384
aF31.72
aa(lp385
V2016/11/10
p386
aF32.08
aa(lp387
V2016/11/11
p388
aF32.25
aa(lp389
V2016/11/14
p390
aF33.02
aa(lp391
V2016/11/15
p392
aF32.7
aa(lp393
V2016/11/16
p394
aF32.7
aa(lp395
V2016/11/17
p396
aF32.7
aa(lp397
V2016/11/18
p398
aF32.49
aa(lp399
V2016/11/21
p400
aF33.47
aa(lp401
V2016/11/23
p402
aF33.34
aa(lp403
V2016/11/24
p404
aF33.9
aa(lp405
V2016/11/25
p406
aF34.2
aa(lp407
V2016/11/28
p408
aF34.54
aa(lp409
V2016/11/29
p410
aF34.35
aa(lp411
V2016/11/30
p412
aF34.14
aa(lp413
V2016/10/03
p414
aF32.62
aa(lp415
V2016/10/04
p416
aF32.56
aa(lp417
V2016/10/05
p418
aF32.72
aa(lp419
V2016/10/06
p420
aF32.38
aa(lp421
V2016/10/07
p422
aF32.57
aa(lp423
V2016/10/11
p424
aF32.22
aa(lp425
V2016/10/12
p426
aF32.19
aa(lp427
V2016/10/13
p428
aF31.94
aa(lp429
V2016/10/18
p430
aF32.2
aa(lp431
V2016/10/25
p432
aF32.03
aa(lp433
V2016/10/27
p434
aF32.42
aa(lp435
V2016/10/28
p436
aF32.42
aa(lp437
V2016/10/31
p438
aF31.87
aa(lp439
V2016/09/01
p440
aF31.86
aa(lp441
V2016/09/02
p442
aF32.09
aa(lp443
V2016/09/06
p444
aF32.49
aa(lp445
V2016/09/07
p446
aF33.0
aa(lp447
V2016/09/08
p448
aF32.9
aa(lp449
V2016/09/09
p450
aF32.55
aa(lp451
V2016/09/13
p452
aF32.1
aa(lp453
V2016/09/19
p454
aF32.04
aa(lp455
V2016/09/20
p456
aF32.68
aa(lp457
V2016/09/22
p458
aF32.43
aa(lp459
V2016/09/23
p460
aF32.79
aa(lp461
V2016/09/26
p462
aF32.78
aa(lp463
V2016/09/29
p464
aF32.7
aa(lp465
V2016/09/30
p466
aF32.32
aa(lp467
V2016/08/01
p468
aF31.18
aa(lp469
V2016/08/02
p470
aF30.95
aa(lp471
V2016/08/04
p472
aF31.01
aa(lp473
V2016/08/05
p474
aF31.39
aa(lp475
V2016/08/08
p476
aF31.56
aa(lp477
V2016/08/09
p478
aF31.77
aa(lp479
V2016/08/10
p480
aF32.25
aa(lp481
V2016/08/11
p482
aF32.35
aa(lp483
V2016/08/12
p484
aF32.44
aa(lp485
V2016/08/15
p486
aF32.38
aa(lp487
V2016/08/16
p488
aF32.32
aa(lp489
V2016/08/17
p490
aF32.41
aa(lp491
V2016/08/18
p492
aF32.46
aa(lp493
V2016/08/19
p494
aF32.01
aa(lp495
V2016/08/22
p496
aF31.21
aa(lp497
V2016/08/23
p498
aF31.98
aa(lp499
V2016/08/24
p500
aF32.05
aa(lp501
V2016/08/25
p502
aF32.02
aa(lp503
V2016/08/26
p504
aF32.36
aa(lp505
V2016/08/29
p506
aF32.04
aa(lp507
V2016/08/30
p508
aF32.5
aa(lp509
V2016/07/04
p510
aF30.13
aa(lp511
V2016/07/05
p512
aF29.98
aa(lp513
V2016/07/06
p514
aF29.87
aa(lp515
V2016/07/07
p516
aF29.35
aa(lp517
V2016/07/12
p518
aF30.05
aa(lp519
V2016/07/13
p520
aF30.33
aa(lp521
V2016/07/14
p522
aF30.33
aa(lp523
V2016/07/15
p524
aF30.8
aa(lp525
V2016/07/18
p526
aF31.06
aa(lp527
V2016/07/19
p528
aF31.33
aa(lp529
V2016/07/20
p530
aF31.33
aa(lp531
V2016/07/21
p532
aF31.54
aa(lp533
V2016/07/25
p534
aF31.0
aa(lp535
V2016/07/26
p536
aF31.0
aa(lp537
V2016/07/27
p538
aF30.9
aa(lp539
V2016/07/28
p540
aF31.3
aa(lp541
V2016/07/29
p542
aF31.41
aa(lp543
V2016/06/02
p544
aF29.83
aa(lp545
V2016/06/03
p546
aF29.82
aa(lp547
V2016/06/04
p548
aF29.93
aa(lp549
V2016/06/06
p550
aF29.9
aa(lp551
V2016/06/07
p552
aF30.15
aa(lp553
V2016/06/08
p554
aF30.03
aa(lp555
V2016/06/13
p556
aF29.54
aa(lp557
V2016/06/14
p558
aF29.85
aa(lp559
V2016/06/16
p560
aF29.83
aa(lp561
V2016/06/17
p562
aF29.83
aa(lp563
V2016/06/20
p564
aF29.95
aa(lp565
V2016/06/23
p566
aF30.13
aa(lp567
V2016/06/24
p568
aF29.5
aa(lp569
V2016/06/28
p570
aF29.38
aa(lp571
V2016/05/04
p572
aF29.29
aa(lp573
V2016/05/05
p574
aF28.63
aa(lp575
V2016/05/06
p576
aF28.61
aa(lp577
V2016/05/09
p578
aF28.53
aa(lp579
V2016/05/10
p580
aF28.4
aa(lp581
V2016/05/11
p582
aF28.4
aa(lp583
V2016/05/12
p584
aF28.45
aa(lp585
V2016/05/13
p586
aF28.29
aa(lp587
V2016/05/17
p588
aF28.27
aa(lp589
V2016/05/18
p590
aF28.26
aa(lp591
V2016/05/23
p592
aF28.62
aa(lp593
V2016/05/24
p594
aF29.0
aa(lp595
V2016/05/27
p596
aF29.34
aa(lp597
V2016/04/01
p598
aF29.77
aa(lp599
V2016/04/06
p600
aF29.25
aa(lp601
V2016/04/07
p602
aF29.07
aa(lp603
V2016/04/12
p604
aF29.07
aa(lp605
V2016/04/13
p606
aF29.4
aa(lp607
V2016/04/18
p608
aF29.4
aa(lp609
V2016/04/19
p610
aF29.54
aa(lp611
V2016/04/20
p612
aF29.27
aa(lp613
V2016/04/25
p614
aF29.4
aa(lp615
V2016/04/27
p616
aF29.62
aa(lp617
V2016/04/28
p618
aF29.3
aa(lp619
V2016/03/01
p620
aF28.64
aa(lp621
V2016/03/02
p622
aF29.12
aa(lp623
V2016/03/03
p624
aF29.6
aa(lp625
V2016/03/04
p626
aF29.68
aa(lp627
V2016/03/07
p628
aF30.28
aa(lp629
V2016/03/08
p630
aF30.11
aa(lp631
V2016/03/09
p632
aF29.74
aa(lp633
V2016/03/10
p634
aF29.84
aa(lp635
V2016/03/11
p636
aF29.9
aa(lp637
V2016/03/14
p638
aF30.37
aa(lp639
V2016/03/15
p640
aF30.0
aa(lp641
V2016/03/16
p642
aF29.89
aa(lp643
V2016/03/17
p644
aF30.0
aa(lp645
V2016/03/18
p646
aF30.42
aa(lp647
V2016/03/23
p648
aF30.23
aa(lp649
V2016/03/24
p650
aF29.71
aa(lp651
V2016/03/29
p652
aF29.95
aa(lp653
V2016/02/01
p654
aF28.19
aa(lp655
V2016/02/02
p656
aF28.21
aa(lp657
V2016/02/03
p658
aF27.7
aa(lp659
V2016/02/15
p660
aF27.62
aa(lp661
V2016/02/16
p662
aF28.46
aa(lp663
V2016/02/17
p664
aF28.0
aa(lp665
V2016/02/18
p666
aF28.5
aa(lp667
V2016/02/22
p668
aF28.55
aa(lp669
V2016/02/23
p670
aF28.59
aa(lp671
V2016/02/26
p672
aF28.65
aa(lp673
V2016/01/05
p674
aF29.84
aa(lp675
V2016/01/06
p676
aF29.59
aa(lp677
V2016/01/07
p678
aF28.57
aa(lp679
V2016/01/11
p680
aF28.16
aa(lp681
V2016/01/12
p682
aF27.87
aa(lp683
V2016/01/13
p684
aF28.1
aa(lp685
V2016/01/14
p686
aF27.62
aa(lp687
V2016/01/15
p688
aF26.71
aa(lp689
V2016/01/18
p690
aF26.48
aa(lp691
V2016/01/19
p692
aF26.92
aa(lp693
V2016/01/22
p694
aF26.25
aa(lp695
V2016/01/25
p696
aF26.87
aa(lp697
V2016/01/26
p698
aF26.71
aa(lp699
V2016/01/27
p700
aF26.9
aa(lp701
V2016/01/28
p702
aF26.84
aa(lp703
V2016/01/29
p704
aF27.3
aa(lp705
V2015/12/01
p706
aF32.18
aa(lp707
V2015/12/02
p708
aF32.34
aa(lp709
V2015/12/03
p710
aF32.43
aa(lp711
V2015/12/04
p712
aF32.18
aa(lp713
V2015/12/07
p714
aF32.18
aa(lp715
V2015/12/08
p716
aF31.55
aa(lp717
V2015/12/09
p718
aF31.05
aa(lp719
V2015/12/10
p720
aF30.85
aa(lp721
V2015/12/11
p722
aF30.51
aa(lp723
V2015/12/14
p724
aF30.02
aa(lp725
V2015/12/15
p726
aF29.93
aa(lp727
V2015/12/16
p728
aF30.15
aa(lp729
V2015/12/17
p730
aF30.47
aa(lp731
V2015/12/18
p732
aF30.38
aa(lp733
V2015/12/21
p734
aF30.32
aa(lp735
V2015/12/22
p736
aF30.15
aa(lp737
V2015/12/23
p738
aF30.46
aa(lp739
V2015/12/25
p740
aF30.85
aa(lp741
V2015/12/29
p742
aF30.88
aa(lp743
V2015/12/31
p744
aF30.45
aa(lp745
V2015/11/03
p746
aF33.73
aa(lp747
V2015/11/04
p748
aF33.77
aa(lp749
V2015/11/05
p750
aF34.0
aa(lp751
V2015/11/06
p752
aF33.77
aa(lp753
V2015/11/09
p754
aF33.74
aa(lp755
V2015/11/10
p756
aF33.21
aa(lp757
V2015/11/11
p758
aF33.05
aa(lp759
V2015/11/12
p760
aF32.89
aa(lp761
V2015/11/13
p762
aF32.83
aa(lp763
V2015/11/16
p764
aF32.48
aa(lp765
V2015/11/17
p766
aF33.03
aa(lp767
V2015/11/18
p768
aF32.6
aa(lp769
V2015/11/19
p770
aF32.56
aa(lp771
V2015/11/20
p772
aF32.65
aa(lp773
V2015/11/24
p774
aF32.79
aa(lp775
V2015/11/25
p776
aF32.6
aa(lp777
V2015/11/26
p778
aF32.62
aa(lp779
V2015/11/27
p780
aF32.7
aa(lp781
V2015/11/30
p782
aF32.02
aa(lp783
V2015/10/01
p784
aF32.24
aa(lp785
V2015/10/02
p786
aF32.24
aa(lp787
V2015/10/05
p788
aF32.4
aa(lp789
V2015/10/06
p790
aF32.49
aa(lp791
V2015/10/07
p792
aF32.73
aa(lp793
V2015/10/08
p794
aF32.53
aa(lp795
V2015/10/12
p796
aF33.02
aa(lp797
V2015/10/13
p798
aF33.18
aa(lp799
V2015/10/16
p800
aF33.25
aa(lp801
V2015/10/19
p802
aF33.52
aa(lp803
V2015/10/20
p804
aF33.52
aa(lp805
V2015/10/22
p806
aF33.01
aa(lp807
V2015/10/23
p808
aF33.57
aa(lp809
V2015/10/26
p810
aF33.29
aa(lp811
V2015/10/27
p812
aF33.48
aa(lp813
V2015/10/28
p814
aF33.37
aa(lp815
V2015/10/29
p816
aF33.26
aa(lp817
V2015/10/30
p818
aF33.1
aa(lp819
V2015/09/01
p820
aF32.85
aa(lp821
V2015/09/02
p822
aF32.55
aa(lp823
V2015/09/03
p824
aF32.42
aa(lp825
V2015/09/04
p826
aF32.42
aa(lp827
V2015/09/07
p828
aF32.33
aa(lp829
V2015/09/08
p830
aF32.11
aa(lp831
V2015/09/09
p832
aF32.93
aa(lp833
V2015/09/10
p834
aF32.98
aa(lp835
V2015/09/11
p836
aF32.98
aa(lp837
V2015/09/14
p838
aF32.98
aa(lp839
V2015/09/15
p840
aF32.83
aa(lp841
V2015/09/16
p842
aF33.04
aa(lp843
V2015/09/17
p844
aF33.94
aa(lp845
V2015/09/18
p846
aF33.84
aa(lp847
V2015/09/21
p848
aF33.04
aa(lp849
V2015/09/22
p850
aF33.04
aa(lp851
V2015/09/23
p852
aF32.76
aa(lp853
V2015/09/24
p854
aF32.53
aa(lp855
V2015/09/25
p856
aF32.02
aa(lp857
V2015/09/30
p858
aF31.59
aa(lp859
V2015/08/03
p860
aF35.26
aa(lp861
V2015/08/04
p862
aF35.97
aa(lp863
V2015/08/05
p864
aF36.17
aa(lp865
V2015/08/06
p866
aF35.66
aa(lp867
V2015/08/07
p868
aF35.64
aa(lp869
V2015/08/11
p870
aF35.43
aa(lp871
V2015/08/12
p872
aF33.25
aa(lp873
V2015/08/13
p874
aF33.53
aa(lp875
V2015/08/14
p876
aF33.95
aa(lp877
V2015/08/17
p878
aF33.64
aa(lp879
V2015/08/18
p880
aF32.82
aa(lp881
V2015/08/19
p882
aF32.5
aa(lp883
V2015/08/20
p884
aF32.11
aa(lp885
V2015/08/21
p886
aF31.2
aa(lp887
V2015/08/24
p888
aF29.65
aa(lp889
V2015/08/25
p890
aF31.11
aa(lp891
V2015/08/26
p892
aF32.26
aa(lp893
V2015/08/27
p894
aF32.29
aa(lp895
V2015/08/28
p896
aF33.0
aa(lp897
V2015/08/31
p898
aF32.85
aa(lp899
V2015/07/01
p900
aF36.79
aa(lp901
V2015/07/03
p902
aF36.85
aa(lp903
V2015/07/06
p904
aF36.72
aa(lp905
V2015/07/07
p906
aF36.77
aa(lp907
V2015/07/08
p908
aF35.88
aa(lp909
V2015/07/09
p910
aF35.52
aa(lp911
V2015/07/13
p912
aF35.91
aa(lp913
V2015/07/14
p914
aF36.37
aa(lp915
V2015/07/16
p916
aF36.67
aa(lp917
V2015/07/17
p918
aF36.68
aa(lp919
V2015/07/20
p920
aF36.5
aa(lp921
V2015/07/21
p922
aF36.53
aa(lp923
V2015/07/22
p924
aF36.53
aa(lp925
V2015/07/23
p926
aF36.19
aa(lp927
V2015/07/24
p928
aF36.18
aa(lp929
V2015/07/27
p930
aF35.4
aa(lp931
V2015/07/28
p932
aF35.13
aa(lp933
V2015/07/29
p934
aF34.96
aa(lp935
V2015/07/30
p936
aF35.54
aa(lp937
V2015/07/31
p938
aF35.57
aa(lp939
V2015/06/01
p940
aF36.89
aa(lp941
V2015/06/03
p942
aF36.7
aa(lp943
V2015/06/04
p944
aF35.98
aa(lp945
V2015/06/05
p946
aF36.24
aa(lp947
V2015/06/08
p948
aF36.37
aa(lp949
V2015/06/09
p950
aF36.2
aa(lp951
V2015/06/10
p952
aF36.33
aa(lp953
V2015/06/11
p954
aF36.38
aa(lp955
V2015/06/12
p956
aF36.42
aa(lp957
V2015/06/15
p958
aF36.34
aa(lp959
V2015/06/16
p960
aF36.28
aa(lp961
V2015/06/17
p962
aF36.17
aa(lp963
V2015/06/18
p964
aF36.0
aa(lp965
V2015/06/23
p966
aF37.16
aa(lp967
V2015/06/24
p968
aF36.8
aa(lp969
V2015/06/25
p970
aF36.93
aa(lp971
V2015/06/26
p972
aF36.92
aa(lp973
V2015/06/29
p974
aF36.5
aa(lp975
V2015/06/30
p976
aF36.38
aa(lp977
V2015/05/04
p978
aF38.5
aa(lp979
V2015/05/05
p980
aF38.24
aa(lp981
V2015/05/06
p982
aF37.73
aa(lp983
V2015/05/07
p984
aF36.92
aa(lp985
V2015/05/08
p986
aF37.04
aa(lp987
V2015/05/11
p988
aF37.14
aa(lp989
V2015/05/12
p990
aF37.29
aa(lp991
V2015/05/13
p992
aF37.68
aa(lp993
V2015/05/14
p994
aF36.31
aa(lp995
V2015/05/15
p996
aF36.52
aa(lp997
V2015/05/18
p998
aF36.48
aa(lp999
V2015/05/19
p1000
aF37.44
aa(lp1001
V2015/05/20
p1002
aF37.26
aa(lp1003
V2015/05/21
p1004
aF36.35
aa(lp1005
V2015/05/22
p1006
aF36.51
aa(lp1007
V2015/05/25
p1008
aF36.49
aa(lp1009
V2015/05/26
p1010
aF36.72
aa(lp1011
V2015/05/27
p1012
aF37.36
aa(lp1013
V2015/05/28
p1014
aF37.52
aa(lp1015
V2015/05/29
p1016
aF37.25
aa(lp1017
V2015/04/02
p1018
aF34.45
aa(lp1019
V2015/04/07
p1020
aF34.08
aa(lp1021
V2015/04/08
p1022
aF34.37
aa(lp1023
V2015/04/09
p1024
aF34.69
aa(lp1025
V2015/04/10
p1026
aF37.11
aa(lp1027
V2015/04/13
p1028
aF34.9
aa(lp1029
V2015/04/14
p1030
aF34.98
aa(lp1031
V2015/04/15
p1032
aF34.67
aa(lp1033
V2015/04/16
p1034
aF35.09
aa(lp1035
V2015/04/17
p1036
aF35.08
aa(lp1037
V2015/04/20
p1038
aF35.03
aa(lp1039
V2015/04/21
p1040
aF35.06
aa(lp1041
V2015/04/22
p1042
aF35.2
aa(lp1043
V2015/04/23
p1044
aF37.1
aa(lp1045
V2015/04/24
p1046
aF37.37
aa(lp1047
V2015/04/27
p1048
aF38.24
aa(lp1049
V2015/04/28
p1050
aF38.53
aa(lp1051
V2015/04/29
p1052
aF38.12
aa(lp1053
V2015/04/30
p1054
aF38.21
aa(lp1055
V2015/03/02
p1056
aF33.66
aa(lp1057
V2015/03/03
p1058
aF33.51
aa(lp1059
V2015/03/04
p1060
aF33.53
aa(lp1061
V2015/03/05
p1062
aF33.51
aa(lp1063
V2015/03/06
p1064
aF33.43
aa(lp1065
V2015/03/09
p1066
aF33.37
aa(lp1067
V2015/03/10
p1068
aF33.46
aa(lp1069
V2015/03/11
p1070
aF33.8
aa(lp1071
V2015/03/12
p1072
aF34.1
aa(lp1073
V2015/03/13
p1074
aF33.94
aa(lp1075
V2015/03/16
p1076
aF33.68
aa(lp1077
V2015/03/17
p1078
aF33.79
aa(lp1079
V2015/03/18
p1080
aF33.82
aa(lp1081
V2015/03/19
p1082
aF34.21
aa(lp1083
V2015/03/20
p1084
aF34.28
aa(lp1085
V2015/03/23
p1086
aF34.26
aa(lp1087
V2015/03/24
p1088
aF34.28
aa(lp1089
V2015/03/25
p1090
aF34.11
aa(lp1091
V2015/03/26
p1092
aF33.99
aa(lp1093
V2015/03/27
p1094
aF33.94
aa(lp1095
V2015/03/30
p1096
aF33.9
aa(lp1097
V2015/03/31
p1098
aF34.28
aa(lp1099
V2015/02/02
p1100
aF32.57
aa(lp1101
V2015/02/03
p1102
aF32.8
aa(lp1103
V2015/02/04
p1104
aF32.99
aa(lp1105
V2015/02/05
p1106
aF33.09
aa(lp1107
V2015/02/06
p1108
aF33.16
aa(lp1109
V2015/02/09
p1110
aF32.9
aa(lp1111
V2015/02/10
p1112
aF33.28
aa(lp1113
V2015/02/12
p1114
aF33.23
aa(lp1115
V2015/02/13
p1116
aF33.25
aa(lp1117
V2015/02/24
p1118
aF33.8
aa(lp1119
V2015/02/25
p1120
aF33.94
aa(lp1121
V2015/02/26
p1122
aF33.82
aa(lp1123
V2015/01/05
p1124
aF32.55
aa(lp1125
V2015/01/06
p1126
aF32.06
aa(lp1127
V2015/01/07
p1128
aF32.07
aa(lp1129
V2015/01/08
p1130
aF32.34
aa(lp1131
V2015/01/09
p1132
aF32.5
aa(lp1133
V2015/01/12
p1134
aF32.31
aa(lp1135
V2015/01/13
p1136
aF32.65
aa(lp1137
V2015/01/14
p1138
aF32.49
aa(lp1139
V2015/01/15
p1140
aF32.24
aa(lp1141
V2015/01/16
p1142
aF31.78
aa(lp1143
V2015/01/19
p1144
aF31.98
aa(lp1145
V2015/01/20
p1146
aF32.26
aa(lp1147
V2015/01/22
p1148
aF32.69
aa(lp1149
V2015/01/23
p1150
aF32.94
aa(lp1151
V2015/01/26
p1152
aF32.78
aa(lp1153
V2015/01/27
p1154
aF32.93
aa(lp1155
V2015/01/28
p1156
aF33.01
aa(lp1157
V2015/01/29
p1158
aF32.85
aa(lp1159
V2014/12/01
p1160
aF32.79
aa(lp1161
V2014/12/02
p1162
aF31.94
aa(lp1163
V2014/12/03
p1164
aF32.55
aa(lp1165
V2014/12/04
p1166
aF32.87
aa(lp1167
V2014/12/05
p1168
aF32.99
aa(lp1169
V2014/12/08
p1170
aF32.92
aa(lp1171
V2014/12/09
p1172
aF32.74
aa(lp1173
V2014/12/11
p1174
aF32.2
aa(lp1175
V2014/12/12
p1176
aF32.44
aa(lp1177
V2014/12/15
p1178
aF32.23
aa(lp1179
V2014/12/16
p1180
aF32.2
aa(lp1181
V2014/12/17
p1182
aF31.7
aa(lp1183
V2014/12/18
p1184
aF31.85
aa(lp1185
V2014/12/19
p1186
aF32.05
aa(lp1187
V2014/12/22
p1188
aF32.3
aa(lp1189
V2014/12/23
p1190
aF32.49
aa(lp1191
V2014/12/24
p1192
aF32.65
aa(lp1193
V2014/12/25
p1194
aF32.62
aa(lp1195
V2014/12/26
p1196
aF32.7
aa(lp1197
V2014/12/27
p1198
aF32.76
aa(lp1199
V2014/12/29
p1200
aF33.0
aa(lp1201
V2014/12/31
p1202
aF32.84
aa(lp1203
V2014/11/04
p1204
aF33.82
aa(lp1205
V2014/11/05
p1206
aF33.54
aa(lp1207
V2014/11/06
p1208
aF33.36
aa(lp1209
V2014/11/07
p1210
aF33.34
aa(lp1211
V2014/11/10
p1212
aF33.81
aa(lp1213
V2014/11/11
p1214
aF33.65
aa(lp1215
V2014/11/12
p1216
aF33.26
aa(lp1217
V2014/11/13
p1218
aF33.45
aa(lp1219
V2014/11/17
p1220
aF33.26
aa(lp1221
V2014/11/18
p1222
aF33.09
aa(lp1223
V2014/11/19
p1224
aF33.4
aa(lp1225
V2014/11/20
p1226
aF33.61
aa(lp1227
V2014/11/21
p1228
aF33.51
aa(lp1229
V2014/11/24
p1230
aF33.56
aa(lp1231
V2014/11/25
p1232
aF33.41
aa(lp1233
V2014/11/26
p1234
aF33.46
aa(lp1235
V2014/11/27
p1236
aF33.47
aa(lp1237
V2014/11/28
p1238
aF33.47
aa(lp1239
V2014/10/01
p1240
aF32.64
aa(lp1241
V2014/10/03
p1242
aF33.15
aa(lp1243
V2014/10/06
p1244
aF33.16
aa(lp1245
V2014/10/07
p1246
aF32.97
aa(lp1247
V2014/10/08
p1248
aF33.13
aa(lp1249
V2014/10/09
p1250
aF33.29
aa(lp1251
V2014/10/13
p1252
aF32.7
aa(lp1253
V2014/10/14
p1254
aF32.81
aa(lp1255
V2014/10/15
p1256
aF32.51
aa(lp1257
V2014/10/16
p1258
aF32.08
aa(lp1259
V2014/10/17
p1260
aF32.06
aa(lp1261
V2014/10/20
p1262
aF32.24
aa(lp1263
V2014/10/21
p1264
aF32.31
aa(lp1265
V2014/10/22
p1266
aF32.48
aa(lp1267
V2014/10/23
p1268
aF32.71
aa(lp1269
V2014/10/28
p1270
aF33.06
aa(lp1271
V2014/10/29
p1272
aF33.56
aatp1273
Rp1274
aatp1275
Rp1276
.